target datalayout = "e-m:e-p270:32:32-p271:32:32-p272:64:64-i64:64-i128:128-f80:128-n8:16:32:64-S128"
target triple = "x86_64-pc-linux-gnu"

@.str.1 = private unnamed_addr constant [12 x i8] c"lsyscache.c\00", align 1
@.str.3 = private unnamed_addr constant [44 x i8] c"cast from type %s to type %s does not exist\00", align 1
@__func__.get_cast_oid = private unnamed_addr constant [13 x i8] c"get_cast_oid\00", align 1

; Function Attrs: inlinehint nounwind uwtable
define internal i64 @ObjectIdGetDatum(i32 noundef %0) #2 {
  %2 = alloca i32, align 4
  store i32 %0, ptr %2, align 4
  %3 = load i32, ptr %2, align 4
  %4 = zext i32 %3 to i64
  ret i64 %4
}

; Function Attrs: nounwind uwtable
define dso_local i32 @get_cast_oid(i32 noundef %0, i32 noundef %1, i1 noundef zeroext %2) #0 {
  %4 = alloca i32, align 4
  %5 = alloca i32, align 4
  %6 = alloca i8, align 1
  %7 = alloca i32, align 4
  store i32 %0, ptr %4, align 4
  store i32 %1, ptr %5, align 4
  %8 = zext i1 %2 to i8
  store i8 %8, ptr %6, align 1
  call void @llvm.lifetime.start.p0(i64 4, ptr %7) #7
  %9 = load i32, ptr %4, align 4
  %10 = call i64 @ObjectIdGetDatum(i32 noundef %9)
  %11 = load i32, ptr %5, align 4
  %12 = call i64 @ObjectIdGetDatum(i32 noundef %11)
  %13 = call i32 @GetSysCacheOid(i32 noundef 12, i16 noundef signext 1, i64 noundef %10, i64 noundef %12, i64 noundef 0, i64 noundef 0)
  store i32 %13, ptr %7, align 4
  %14 = load i32, ptr %7, align 4
  %15 = icmp ne i32 %14, 0
  br i1 %15, label %35, label %16

16:                                               ; preds = %3
  %17 = load i8, ptr %6, align 1, !range !4, !noundef !5
  %18 = trunc i8 %17 to i1
  br i1 %18, label %35, label %19

19:                                               ; preds = %16
  br label %20

20:                                               ; preds = %19
  br i1 true, label %21, label %23

21:                                               ; preds = %20
  %22 = call zeroext i1 @errstart_cold(i32 noundef 21, ptr noundef null) #8
  br i1 %22, label %25, label %32

23:                                               ; preds = %20
  %24 = call zeroext i1 @errstart(i32 noundef 21, ptr noundef null)
  br i1 %24, label %25, label %32

25:                                               ; preds = %23, %21
  %26 = call i32 @errcode(i32 noundef 67137668)
  %27 = load i32, ptr %4, align 4
  %28 = call ptr @format_type_be(i32 noundef %27)
  %29 = load i32, ptr %5, align 4
  %30 = call ptr @format_type_be(i32 noundef %29)
  %31 = call i32 (ptr, ...) @errmsg(ptr noundef @.str.3, ptr noundef %28, ptr noundef %30)
  call void @errfinish(ptr noundef @.str.1, i32 noundef 1020, ptr noundef @__func__.get_cast_oid)
  br label %32

32:                                               ; preds = %25, %23, %21
  unreachable

33:                                               ; No predecessors!
  br label %34

34:                                               ; preds = %33
  br label %35

35:                                               ; preds = %34, %16, %3
  %36 = load i32, ptr %7, align 4
  call void @llvm.lifetime.end.p0(i64 4, ptr %7) #7
  ret i32 %36
}