; Function Attrs: nounwind uwtable
define dso_local i32 @get_cast_oid(i32 noundef %0, i32 noundef %1, i1 noundef zeroext %2) local_unnamed_addr #0 {
  %4 = zext i32 %0 to i64
  %5 = zext i32 %1 to i64
  %6 = tail call i32 @GetSysCacheOid(i32 noundef 12, i16 noundef signext 1, i64 noundef %4, i64 noundef %5, i64 noundef 0, i64 noundef 0) #8
  %.not = icmp ne i32 %6, 0
  %brmerge = or i1 %2, %.not
  br i1 %brmerge, label %13, label %7

7:                                                ; preds = %3
  %8 = tail call zeroext i1 @errstart_cold(i32 noundef 21, ptr noundef null) #9
  tail call void @llvm.assume(i1 %8)
  %9 = tail call i32 @errcode(i32 noundef 67137668) #8
  %10 = tail call ptr @format_type_be(i32 noundef %0) #8
  %11 = tail call ptr @format_type_be(i32 noundef %1) #8
  %12 = tail call i32 (ptr, ...) @errmsg(ptr noundef nonnull @.str.3, ptr noundef %10, ptr noundef %11) #8
  tail call void @errfinish(ptr noundef nonnull @.str.1, i32 noundef 1020, ptr noundef nonnull @__func__.get_cast_oid) #8
  unreachable

13:                                               ; preds = %3
  ret i32 %6
}